; Function Attrs: nofree norecurse nosync nounwind memory(argmem: readwrite) uwtable
define internal void @h264_h_loop_filter_luma_mbaff_intra_8_c(ptr noundef captures(none) %0, i64 noundef %1, i32 noundef %2, i32 noundef %3) #1 {
  %5 = lshr i32 %2, 2
  %6 = add nuw nsw i32 %5, 2
  br label %7

7:                                                ; preds = %4, %121
  %.0.i4 = phi ptr [ %0, %4 ], [ %122, %121 ]
  %.0127.i3 = phi i32 [ 0, %4 ], [ %123, %121 ]
  %8 = getelementptr inbounds i8, ptr %.0.i4, i64 -3
  %9 = load i8, ptr %8, align 1, !tbaa !42
  %10 = zext i8 %9 to i32
  %11 = getelementptr inbounds i8, ptr %.0.i4, i64 -2
  %12 = load i8, ptr %11, align 1, !tbaa !42
  %13 = zext i8 %12 to i32
  %14 = getelementptr inbounds i8, ptr %.0.i4, i64 -1
  %15 = load i8, ptr %14, align 1, !tbaa !42
  %16 = zext i8 %15 to i32
  %17 = load i8, ptr %.0.i4, align 1, !tbaa !42
  %18 = zext i8 %17 to i32
  %19 = getelementptr inbounds nuw i8, ptr %.0.i4, i64 1
  %20 = load i8, ptr %19, align 1, !tbaa !42
  %21 = zext i8 %20 to i32
  %22 = getelementptr inbounds nuw i8, ptr %.0.i4, i64 2
  %23 = load i8, ptr %22, align 1, !tbaa !42
  %24 = zext i8 %23 to i32
  %25 = sub nsw i32 %16, %18
  %26 = tail call i32 @llvm.abs.i32(i32 %25, i1 true)
  %27 = icmp slt i32 %26, %2
  br i1 %27, label %28, label %121

28:                                               ; preds = %7
  %29 = sub nsw i32 %13, %16
  %30 = tail call i32 @llvm.abs.i32(i32 %29, i1 true)
  %31 = icmp slt i32 %30, %3
  br i1 %31, label %32, label %121

32:                                               ; preds = %28
  %33 = sub nsw i32 %21, %18
  %34 = tail call i32 @llvm.abs.i32(i32 %33, i1 true)
  %35 = icmp samesign ult i32 %34, %3
  br i1 %35, label %36, label %121

36:                                               ; preds = %32
  %37 = icmp samesign ult i32 %26, %6
  br i1 %37, label %38, label %108

38:                                               ; preds = %36
  %39 = sub nsw i32 %10, %16
  %40 = tail call i32 @llvm.abs.i32(i32 %39, i1 true)
  %41 = icmp samesign ult i32 %40, %3
  br i1 %41, label %42, label %67

42:                                               ; preds = %38
  %43 = getelementptr inbounds i8, ptr %.0.i4, i64 -4
  %44 = load i8, ptr %43, align 1, !tbaa !42
  %45 = zext i8 %44 to i32
  %46 = add nuw nsw i32 %18, %13
  %47 = add nuw nsw i32 %46, %16
  %48 = shl nuw nsw i32 %47, 1
  %49 = add nuw nsw i32 %21, 4
  %50 = add nuw nsw i32 %49, %10
  %51 = add nuw nsw i32 %50, %48
  %52 = lshr i32 %51, 3
  %53 = add nuw nsw i32 %46, 2
  %54 = add nuw nsw i32 %53, %10
  %55 = add nuw nsw i32 %54, %16
  %56 = lshr i32 %55, 2
  %57 = trunc nuw i32 %56 to i8
  store i8 %57, ptr %11, align 1, !tbaa !42
  %58 = shl nuw nsw i32 %45, 1
  %59 = mul nuw nsw i32 %10, 3
  %60 = add nuw nsw i32 %59, 4
  %61 = add nuw nsw i32 %60, %13
  %62 = add nuw nsw i32 %61, %16
  %63 = add nuw nsw i32 %62, %18
  %64 = add nuw nsw i32 %63, %58
  %65 = lshr i32 %64, 3
  %66 = trunc nuw i32 %65 to i8
  store i8 %66, ptr %8, align 1, !tbaa !42
  br label %73

67:                                               ; preds = %38
  %68 = shl nuw nsw i32 %13, 1
  %69 = add nuw nsw i32 %16, 2
  %70 = add nuw nsw i32 %69, %68
  %71 = add nuw nsw i32 %70, %21
  %72 = lshr i32 %71, 2
  br label %73

73:                                               ; preds = %67, %42
  %.sink.in = phi i32 [ %52, %42 ], [ %72, %67 ]
  %.sink = trunc nuw i32 %.sink.in to i8
  store i8 %.sink, ptr %14, align 1, !tbaa !42
  %74 = sub nsw i32 %24, %18
  %75 = tail call i32 @llvm.abs.i32(i32 %74, i1 true)
  %76 = icmp samesign ult i32 %75, %3
  br i1 %76, label %77, label %101

77:                                               ; preds = %73
  %78 = getelementptr inbounds nuw i8, ptr %.0.i4, i64 3
  %79 = load i8, ptr %78, align 1, !tbaa !42
  %80 = zext i8 %79 to i32
  %81 = add nuw nsw i32 %18, %16
  %82 = add nuw nsw i32 %81, %21
  %83 = shl nuw nsw i32 %82, 1
  %84 = add nuw nsw i32 %13, 4
  %85 = add nuw nsw i32 %84, %24
  %86 = add nuw nsw i32 %85, %83
  %87 = lshr i32 %86, 3
  %88 = trunc nuw i32 %87 to i8
  store i8 %88, ptr %.0.i4, align 1, !tbaa !42
  %89 = add nuw nsw i32 %24, 2
  %90 = add nuw nsw i32 %89, %82
  %91 = lshr i32 %90, 2
  %92 = trunc nuw i32 %91 to i8
  store i8 %92, ptr %19, align 1, !tbaa !42
  %93 = shl nuw nsw i32 %80, 1
  %94 = mul nuw nsw i32 %24, 3
  %95 = add nuw nsw i32 %81, 4
  %96 = add nuw nsw i32 %95, %21
  %97 = add nuw nsw i32 %96, %94
  %98 = add nuw nsw i32 %97, %93
  %99 = lshr i32 %98, 3
  %100 = trunc nuw i32 %99 to i8
  store i8 %100, ptr %22, align 1, !tbaa !42
  br label %121

101:                                              ; preds = %73
  %102 = shl nuw nsw i32 %21, 1
  %103 = add nuw nsw i32 %18, %13
  %104 = add nuw nsw i32 %103, 2
  %105 = add nuw nsw i32 %104, %102
  %106 = lshr i32 %105, 2
  %107 = trunc nuw i32 %106 to i8
  store i8 %107, ptr %.0.i4, align 1, !tbaa !42
  br label %121

108:                                              ; preds = %36
  %109 = shl nuw nsw i32 %13, 1
  %110 = add nuw nsw i32 %16, 2
  %111 = add nuw nsw i32 %110, %109
  %112 = add nuw nsw i32 %111, %21
  %113 = lshr i32 %112, 2
  %114 = trunc nuw i32 %113 to i8
  store i8 %114, ptr %14, align 1, !tbaa !42
  %115 = shl nuw nsw i32 %21, 1
  %116 = add nuw nsw i32 %18, %13
  %117 = add nuw nsw i32 %116, 2
  %118 = add nuw nsw i32 %117, %115
  %119 = lshr i32 %118, 2
  %120 = trunc nuw i32 %119 to i8
  store i8 %120, ptr %.0.i4, align 1, !tbaa !42
  br label %121

121:                                              ; preds = %108, %101, %77, %32, %28, %7
  %122 = getelementptr inbounds i8, ptr %.0.i4, i64 %1
  %123 = add nuw nsw i32 %.0127.i3, 1
  %exitcond.not = icmp eq i32 %123, 8
  br i1 %exitcond.not, label %h264_loop_filter_luma_intra_8_c.exit, label %7, !llvm.loop !111

h264_loop_filter_luma_intra_8_c.exit:             ; preds = %121
  ret void
}